target datalayout = "e-m:e-p270:32:32-p271:32:32-p272:64:64-i64:64-i128:128-f80:128-n8:16:32:64-S128"
target triple = "x86_64-pc-linux-gnu"

%struct.Vec_Wrd_t_ = type { i32, i32, ptr }

@.str.14 = private unnamed_addr constant [63 x i8] c"The relation is not well-defined for %d (out of %d) patterns.\0A\00", align 1
@.str.18 = private unnamed_addr constant [79 x i8] c"The relation was successfully determized without don't-cares for %d patterns.\0A\00", align 1

; Function Attrs: inlinehint nounwind uwtable
define internal ptr @Vec_WrdAlloc(i32 noundef %0) #2 {
  %2 = alloca i32, align 4
  %3 = alloca ptr, align 8
  store i32 %0, ptr %2, align 4, !tbaa !8
  call void @llvm.lifetime.start.p0(i64 8, ptr %3) #13
  %4 = call noalias ptr @malloc(i64 noundef 16) #14
  store ptr %4, ptr %3, align 8, !tbaa !10
  %5 = load i32, ptr %2, align 4, !tbaa !8
  %6 = icmp sgt i32 %5, 0
  br i1 %6, label %7, label %11

7:                                                ; preds = %1
  %8 = load i32, ptr %2, align 4, !tbaa !8
  %9 = icmp slt i32 %8, 16
  br i1 %9, label %10, label %11

10:                                               ; preds = %7
  store i32 16, ptr %2, align 4, !tbaa !8
  br label %11

11:                                               ; preds = %10, %7, %1
  %12 = load ptr, ptr %3, align 8, !tbaa !10
  %13 = getelementptr inbounds nuw %struct.Vec_Wrd_t_, ptr %12, i32 0, i32 1
  store i32 0, ptr %13, align 4, !tbaa !45
  %14 = load i32, ptr %2, align 4, !tbaa !8
  %15 = load ptr, ptr %3, align 8, !tbaa !10
  %16 = getelementptr inbounds nuw %struct.Vec_Wrd_t_, ptr %15, i32 0, i32 0
  store i32 %14, ptr %16, align 8, !tbaa !130
  %17 = load ptr, ptr %3, align 8, !tbaa !10
  %18 = getelementptr inbounds nuw %struct.Vec_Wrd_t_, ptr %17, i32 0, i32 0
  %19 = load i32, ptr %18, align 8, !tbaa !130
  %20 = icmp ne i32 %19, 0
  br i1 %20, label %21, label %28

21:                                               ; preds = %11
  %22 = load ptr, ptr %3, align 8, !tbaa !10
  %23 = getelementptr inbounds nuw %struct.Vec_Wrd_t_, ptr %22, i32 0, i32 0
  %24 = load i32, ptr %23, align 8, !tbaa !130
  %25 = sext i32 %24 to i64
  %26 = mul i64 8, %25
  %27 = call noalias ptr @malloc(i64 noundef %26) #14
  br label %29

28:                                               ; preds = %11
  br label %29

29:                                               ; preds = %28, %21
  %30 = phi ptr [ %27, %21 ], [ null, %28 ]
  %31 = load ptr, ptr %3, align 8, !tbaa !10
  %32 = getelementptr inbounds nuw %struct.Vec_Wrd_t_, ptr %31, i32 0, i32 2
  store ptr %30, ptr %32, align 8, !tbaa !37
  %33 = load ptr, ptr %3, align 8, !tbaa !10
  call void @llvm.lifetime.end.p0(i64 8, ptr %3) #13
  ret ptr %33
}

; Function Attrs: inlinehint nounwind uwtable
define internal void @Abc_TtSetBit(ptr noundef %0, i32 noundef %1) #2 {
  %3 = alloca ptr, align 8
  %4 = alloca i32, align 4
  store ptr %0, ptr %3, align 8, !tbaa !47
  store i32 %1, ptr %4, align 4, !tbaa !8
  %5 = load i32, ptr %4, align 4, !tbaa !8
  %6 = and i32 %5, 63
  %7 = zext i32 %6 to i64
  %8 = shl i64 1, %7
  %9 = load ptr, ptr %3, align 8, !tbaa !47
  %10 = load i32, ptr %4, align 4, !tbaa !8
  %11 = ashr i32 %10, 6
  %12 = sext i32 %11 to i64
  %13 = getelementptr inbounds i64, ptr %9, i64 %12
  %14 = load i64, ptr %13, align 8, !tbaa !46
  %15 = or i64 %14, %8
  store i64 %15, ptr %13, align 8, !tbaa !46
  ret void
}

; Function Attrs: inlinehint nounwind uwtable
define internal ptr @Vec_WrdEntryP(ptr noundef %0, i32 noundef %1) #2 {
  %3 = alloca ptr, align 8
  %4 = alloca i32, align 4
  store ptr %0, ptr %3, align 8, !tbaa !10
  store i32 %1, ptr %4, align 4, !tbaa !8
  %5 = load ptr, ptr %3, align 8, !tbaa !10
  %6 = getelementptr inbounds nuw %struct.Vec_Wrd_t_, ptr %5, i32 0, i32 2
  %7 = load ptr, ptr %6, align 8, !tbaa !37
  %8 = load i32, ptr %4, align 4, !tbaa !8
  %9 = sext i32 %8 to i64
  %10 = getelementptr inbounds i64, ptr %7, i64 %9
  ret ptr %10
}

; Function Attrs: inlinehint nounwind uwtable
define internal i32 @Abc_TtGetBit(ptr noundef %0, i32 noundef %1) #2 {
  %3 = alloca ptr, align 8
  %4 = alloca i32, align 4
  store ptr %0, ptr %3, align 8, !tbaa !47
  store i32 %1, ptr %4, align 4, !tbaa !8
  %5 = load ptr, ptr %3, align 8, !tbaa !47
  %6 = load i32, ptr %4, align 4, !tbaa !8
  %7 = ashr i32 %6, 6
  %8 = sext i32 %7 to i64
  %9 = getelementptr inbounds i64, ptr %5, i64 %8
  %10 = load i64, ptr %9, align 8, !tbaa !46
  %11 = load i32, ptr %4, align 4, !tbaa !8
  %12 = and i32 %11, 63
  %13 = zext i32 %12 to i64
  %14 = lshr i64 %10, %13
  %15 = trunc i64 %14 to i32
  %16 = and i32 %15, 1
  ret i32 %16
}

; Function Attrs: inlinehint nounwind uwtable
define internal ptr @Vec_WrdArray(ptr noundef %0) #2 {
  %2 = alloca ptr, align 8
  store ptr %0, ptr %2, align 8, !tbaa !10
  %3 = load ptr, ptr %2, align 8, !tbaa !10
  %4 = getelementptr inbounds nuw %struct.Vec_Wrd_t_, ptr %3, i32 0, i32 2
  %5 = load ptr, ptr %4, align 8, !tbaa !37
  ret ptr %5
}

; Function Attrs: inlinehint nounwind uwtable
define internal ptr @Vec_WrdStart(i32 noundef %0) #2 {
  %2 = alloca i32, align 4
  %3 = alloca ptr, align 8
  store i32 %0, ptr %2, align 4, !tbaa !8
  call void @llvm.lifetime.start.p0(i64 8, ptr %3) #13
  %4 = load i32, ptr %2, align 4, !tbaa !8
  %5 = call ptr @Vec_WrdAlloc(i32 noundef %4)
  store ptr %5, ptr %3, align 8, !tbaa !10
  %6 = load i32, ptr %2, align 4, !tbaa !8
  %7 = load ptr, ptr %3, align 8, !tbaa !10
  %8 = getelementptr inbounds nuw %struct.Vec_Wrd_t_, ptr %7, i32 0, i32 1
  store i32 %6, ptr %8, align 4, !tbaa !45
  %9 = load ptr, ptr %3, align 8, !tbaa !10
  %10 = getelementptr inbounds nuw %struct.Vec_Wrd_t_, ptr %9, i32 0, i32 2
  %11 = load ptr, ptr %10, align 8, !tbaa !37
  %12 = load i32, ptr %2, align 4, !tbaa !8
  %13 = sext i32 %12 to i64
  %14 = mul i64 8, %13
  call void @llvm.memset.p0.i64(ptr align 8 %11, i8 0, i64 %14, i1 false)
  %15 = load ptr, ptr %3, align 8, !tbaa !10
  call void @llvm.lifetime.end.p0(i64 8, ptr %3) #13
  ret ptr %15
}

; Function Attrs: inlinehint nounwind uwtable
define internal i32 @Vec_WrdSize(ptr noundef %0) #2 {
  %2 = alloca ptr, align 8
  store ptr %0, ptr %2, align 8, !tbaa !10
  %3 = load ptr, ptr %2, align 8, !tbaa !10
  %4 = getelementptr inbounds nuw %struct.Vec_Wrd_t_, ptr %3, i32 0, i32 1
  %5 = load i32, ptr %4, align 4, !tbaa !45
  ret i32 %5
}

; Function Attrs: nounwind uwtable
define ptr @Gia_ManSimRelDeriveFuncs(ptr noundef %0, ptr noundef %1, i32 noundef %2) #0 {
  %4 = alloca ptr, align 8
  %5 = alloca ptr, align 8
  %6 = alloca i32, align 4
  %7 = alloca i32, align 4
  %8 = alloca i32, align 4
  %9 = alloca i32, align 4
  %10 = alloca i32, align 4
  %11 = alloca i32, align 4
  %12 = alloca i32, align 4
  %13 = alloca ptr, align 8
  store ptr %0, ptr %4, align 8, !tbaa !3
  store ptr %1, ptr %5, align 8, !tbaa !10
  store i32 %2, ptr %6, align 4, !tbaa !8
  call void @llvm.lifetime.start.p0(i64 4, ptr %7) #13
  call void @llvm.lifetime.start.p0(i64 4, ptr %8) #13
  call void @llvm.lifetime.start.p0(i64 4, ptr %9) #13
  call void @llvm.lifetime.start.p0(i64 4, ptr %10) #13
  store i32 0, ptr %10, align 4, !tbaa !8
  call void @llvm.lifetime.start.p0(i64 4, ptr %11) #13
  %14 = load i32, ptr %6, align 4, !tbaa !8
  %15 = shl i32 1, %14
  store i32 %15, ptr %11, align 4, !tbaa !8
  call void @llvm.lifetime.start.p0(i64 4, ptr %12) #13
  %16 = load ptr, ptr %5, align 8, !tbaa !10
  %17 = call i32 @Vec_WrdSize(ptr noundef %16)
  %18 = load i32, ptr %11, align 4, !tbaa !8
  %19 = sdiv i32 %17, %18
  store i32 %19, ptr %12, align 4, !tbaa !8
  call void @llvm.lifetime.start.p0(i64 8, ptr %13) #13
  %20 = load i32, ptr %6, align 4, !tbaa !8
  %21 = mul nsw i32 2, %20
  %22 = load i32, ptr %12, align 4, !tbaa !8
  %23 = mul nsw i32 %21, %22
  %24 = call ptr @Vec_WrdStart(i32 noundef %23)
  store ptr %24, ptr %13, align 8, !tbaa !10
  store i32 0, ptr %7, align 4, !tbaa !8
  br label %25

25:                                               ; preds = %90, %3
  %26 = load i32, ptr %7, align 4, !tbaa !8
  %27 = load i32, ptr %12, align 4, !tbaa !8
  %28 = mul nsw i32 64, %27
  %29 = icmp slt i32 %26, %28
  br i1 %29, label %30, label %93

30:                                               ; preds = %25
  store i32 0, ptr %9, align 4, !tbaa !8
  br label %31

31:                                               ; preds = %47, %30
  %32 = load i32, ptr %9, align 4, !tbaa !8
  %33 = load i32, ptr %11, align 4, !tbaa !8
  %34 = icmp slt i32 %32, %33
  br i1 %34, label %35, label %50

35:                                               ; preds = %31
  %36 = load ptr, ptr %5, align 8, !tbaa !10
  %37 = call ptr @Vec_WrdArray(ptr noundef %36)
  %38 = load i32, ptr %7, align 4, !tbaa !8
  %39 = load i32, ptr %11, align 4, !tbaa !8
  %40 = mul nsw i32 %38, %39
  %41 = load i32, ptr %9, align 4, !tbaa !8
  %42 = add nsw i32 %40, %41
  %43 = call i32 @Abc_TtGetBit(ptr noundef %37, i32 noundef %42)
  %44 = icmp ne i32 %43, 0
  br i1 %44, label %45, label %46

45:                                               ; preds = %35
  br label %50

46:                                               ; preds = %35
  br label %47

47:                                               ; preds = %46
  %48 = load i32, ptr %9, align 4, !tbaa !8
  %49 = add nsw i32 %48, 1
  store i32 %49, ptr %9, align 4, !tbaa !8
  br label %31, !llvm.loop !212

50:                                               ; preds = %45, %31
  %51 = load i32, ptr %9, align 4, !tbaa !8
  %52 = load i32, ptr %11, align 4, !tbaa !8
  %53 = icmp eq i32 %51, %52
  %54 = zext i1 %53 to i32
  %55 = load i32, ptr %10, align 4, !tbaa !8
  %56 = add nsw i32 %55, %54
  store i32 %56, ptr %10, align 4, !tbaa !8
  store i32 0, ptr %8, align 4, !tbaa !8
  br label %57

57:                                               ; preds = %86, %50
  %58 = load i32, ptr %8, align 4, !tbaa !8
  %59 = load i32, ptr %6, align 4, !tbaa !8
  %60 = icmp slt i32 %58, %59
  br i1 %60, label %61, label %89

61:                                               ; preds = %57
  %62 = load i32, ptr %9, align 4, !tbaa !8
  %63 = load i32, ptr %8, align 4, !tbaa !8
  %64 = ashr i32 %62, %63
  %65 = and i32 %64, 1
  %66 = icmp ne i32 %65, 0
  br i1 %66, label %67, label %76

67:                                               ; preds = %61
  %68 = load ptr, ptr %13, align 8, !tbaa !10
  %69 = load i32, ptr %8, align 4, !tbaa !8
  %70 = mul nsw i32 2, %69
  %71 = add nsw i32 %70, 1
  %72 = load i32, ptr %12, align 4, !tbaa !8
  %73 = mul nsw i32 %71, %72
  %74 = call ptr @Vec_WrdEntryP(ptr noundef %68, i32 noundef %73)
  %75 = load i32, ptr %7, align 4, !tbaa !8
  call void @Abc_TtSetBit(ptr noundef %74, i32 noundef %75)
  br label %85

76:                                               ; preds = %61
  %77 = load ptr, ptr %13, align 8, !tbaa !10
  %78 = load i32, ptr %8, align 4, !tbaa !8
  %79 = mul nsw i32 2, %78
  %80 = add nsw i32 %79, 0
  %81 = load i32, ptr %12, align 4, !tbaa !8
  %82 = mul nsw i32 %80, %81
  %83 = call ptr @Vec_WrdEntryP(ptr noundef %77, i32 noundef %82)
  %84 = load i32, ptr %7, align 4, !tbaa !8
  call void @Abc_TtSetBit(ptr noundef %83, i32 noundef %84)
  br label %85

85:                                               ; preds = %76, %67
  br label %86

86:                                               ; preds = %85
  %87 = load i32, ptr %8, align 4, !tbaa !8
  %88 = add nsw i32 %87, 1
  store i32 %88, ptr %8, align 4, !tbaa !8
  br label %57, !llvm.loop !213

89:                                               ; preds = %57
  br label %90

90:                                               ; preds = %89
  %91 = load i32, ptr %7, align 4, !tbaa !8
  %92 = add nsw i32 %91, 1
  store i32 %92, ptr %7, align 4, !tbaa !8
  br label %25, !llvm.loop !214

93:                                               ; preds = %25
  %94 = load i32, ptr %10, align 4, !tbaa !8
  %95 = icmp ne i32 %94, 0
  br i1 %95, label %96, label %101

96:                                               ; preds = %93
  %97 = load i32, ptr %10, align 4, !tbaa !8
  %98 = load i32, ptr %12, align 4, !tbaa !8
  %99 = mul nsw i32 64, %98
  %100 = call i32 (ptr, ...) @printf(ptr noundef @.str.14, i32 noundef %97, i32 noundef %99)
  br label %105

101:                                              ; preds = %93
  %102 = load i32, ptr %12, align 4, !tbaa !8
  %103 = mul nsw i32 64, %102
  %104 = call i32 (ptr, ...) @printf(ptr noundef @.str.18, i32 noundef %103)
  br label %105

105:                                              ; preds = %101, %96
  %106 = load ptr, ptr %4, align 8, !tbaa !3
  %107 = load ptr, ptr %5, align 8, !tbaa !10
  %108 = load i32, ptr %6, align 4, !tbaa !8
  %109 = load ptr, ptr %13, align 8, !tbaa !10
  call void @Gia_ManSimRelCheckFuncs(ptr noundef %106, ptr noundef %107, i32 noundef %108, ptr noundef %109)
  %110 = load ptr, ptr %13, align 8, !tbaa !10
  call void @llvm.lifetime.end.p0(i64 8, ptr %13) #13
  call void @llvm.lifetime.end.p0(i64 4, ptr %12) #13
  call void @llvm.lifetime.end.p0(i64 4, ptr %11) #13
  call void @llvm.lifetime.end.p0(i64 4, ptr %10) #13
  call void @llvm.lifetime.end.p0(i64 4, ptr %9) #13
  call void @llvm.lifetime.end.p0(i64 4, ptr %8) #13
  call void @llvm.lifetime.end.p0(i64 4, ptr %7) #13
  ret ptr %110
}