; Function Attrs: nofree nounwind uwtable
define noalias noundef ptr @Gia_ManSimRelDeriveFuncs(ptr noundef readnone captures(none) %0, ptr noundef readonly captures(none) %1, i32 noundef %2) local_unnamed_addr #3 {
  %4 = shl nuw i32 1, %2
  %5 = getelementptr i8, ptr %1, i64 4
  %.val47 = load i32, ptr %5, align 4, !tbaa !37
  %6 = sdiv i32 %.val47, %4
  %7 = shl nsw i32 %2, 1
  %8 = mul nsw i32 %6, %7
  %9 = tail call noalias dereferenceable_or_null(16) ptr @malloc(i64 noundef 16) #31
  %10 = add i32 %8, -1
  %or.cond.i.i = icmp ult i32 %10, 15
  %spec.store.select.i.i = select i1 %or.cond.i.i, i32 16, i32 %8
  store i32 %spec.store.select.i.i, ptr %9, align 8, !tbaa !39
  %.not.i.i = icmp eq i32 %spec.store.select.i.i, 0
  br i1 %.not.i.i, label %Vec_WrdStart.exit, label %11

11:                                               ; preds = %3
  %12 = sext i32 %spec.store.select.i.i to i64
  %13 = shl nsw i64 %12, 3
  %14 = tail call noalias ptr @malloc(i64 noundef %13) #31
  br label %Vec_WrdStart.exit

Vec_WrdStart.exit:                                ; preds = %3, %11
  %15 = phi ptr [ %14, %11 ], [ null, %3 ]
  %16 = getelementptr inbounds nuw i8, ptr %9, i64 4
  %17 = getelementptr inbounds nuw i8, ptr %9, i64 8
  store ptr %15, ptr %17, align 8, !tbaa !31
  store i32 %8, ptr %16, align 4, !tbaa !37
  %18 = sext i32 %8 to i64
  %19 = shl nsw i64 %18, 3
  tail call void @llvm.memset.p0.i64(ptr align 8 %15, i8 0, i64 %19, i1 false)
  %20 = shl i32 %6, 6
  %21 = icmp sgt i32 %6, 0
  br i1 %21, label %.preheader.lr.ph, label %._crit_edge60.thread

.preheader.lr.ph:                                 ; preds = %Vec_WrdStart.exit
  %22 = getelementptr i8, ptr %1, i64 8
  %23 = icmp sgt i32 %2, 0
  %24 = shl nuw i32 %6, 1
  br i1 %23, label %.preheader.lr.ph.split.us, label %.preheader.lr.ph.split.split.us

.preheader.lr.ph.split.us:                        ; preds = %.preheader.lr.ph
  %.not82 = icmp eq i32 %2, 31
  br i1 %.not82, label %.preheader.us.preheader, label %.preheader.lr.ph.split.us.split.us

.preheader.us.preheader:                          ; preds = %.preheader.lr.ph.split.us
  %smax100 = tail call i32 @llvm.smax.i32(i32 %20, i32 1)
  br label %.preheader.us

.preheader.lr.ph.split.us.split.us:               ; preds = %.preheader.lr.ph.split.us
  %.val48.us.us = load ptr, ptr %22, align 8, !tbaa !31
  %smax89 = tail call i32 @llvm.smax.i32(i32 %4, i32 1)
  %25 = zext nneg i32 %6 to i64
  %smax93 = tail call i32 @llvm.smax.i32(i32 %20, i32 1)
  %wide.trip.count = zext nneg i32 %2 to i64
  br label %.preheader.us.us

.preheader.us.us:                                 ; preds = %._crit_edge55.us.us, %.preheader.lr.ph.split.us.split.us
  %.059.us.us = phi i32 [ 0, %.preheader.lr.ph.split.us.split.us ], [ %61, %._crit_edge55.us.us ]
  %.04158.us.us = phi i32 [ 0, %.preheader.lr.ph.split.us.split.us ], [ %60, %._crit_edge55.us.us ]
  %26 = shl i32 %.059.us.us, %2
  br label %27

27:                                               ; preds = %.preheader.us.us, %58
  %.04049.us.us = phi i32 [ 0, %.preheader.us.us ], [ %59, %58 ]
  %28 = add nsw i32 %.04049.us.us, %26
  %29 = ashr i32 %28, 6
  %30 = sext i32 %29 to i64
  %31 = getelementptr inbounds i64, ptr %.val48.us.us, i64 %30
  %32 = load i64, ptr %31, align 8, !tbaa !41
  %33 = and i32 %28, 63
  %34 = zext nneg i32 %33 to i64
  %35 = shl nuw i64 1, %34
  %36 = and i64 %32, %35
  %.not44.us.us = icmp eq i64 %36, 0
  br i1 %.not44.us.us, label %58, label %.lr.ph54.us.us

.lr.ph54.us.us:                                   ; preds = %58, %27
  %.040.lcssa.us.us = phi i32 [ %.04049.us.us, %27 ], [ %smax89, %58 ]
  %37 = icmp eq i32 %.040.lcssa.us.us, %4
  %38 = zext i1 %37 to i32
  %39 = and i32 %.059.us.us, 63
  %40 = zext nneg i32 %39 to i64
  %41 = shl nuw i64 1, %40
  %42 = lshr i32 %.059.us.us, 6
  %43 = zext nneg i32 %42 to i64
  %invariant.gep.us.us = getelementptr i64, ptr %15, i64 %43
  br label %44

44:                                               ; preds = %55, %.lr.ph54.us.us
  %indvars.iv = phi i64 [ %indvars.iv.next, %55 ], [ 0, %.lr.ph54.us.us ]
  %45 = trunc nuw nsw i64 %indvars.iv to i32
  %46 = shl nuw i32 1, %45
  %47 = and i32 %46, %.040.lcssa.us.us
  %.not45.us.us = icmp eq i32 %47, 0
  br i1 %.not45.us.us, label %52, label %48

48:                                               ; preds = %44
  %49 = shl nuw nsw i64 %indvars.iv, 1
  %50 = or disjoint i64 %49, 1
  %51 = mul nuw nsw i64 %50, %25
  br label %55

52:                                               ; preds = %44
  %53 = mul i32 %24, %45
  %54 = sext i32 %53 to i64
  br label %55

55:                                               ; preds = %52, %48
  %.sink = phi i64 [ %54, %52 ], [ %51, %48 ]
  %gep57.us.us = getelementptr i64, ptr %invariant.gep.us.us, i64 %.sink
  %56 = load i64, ptr %gep57.us.us, align 8, !tbaa !41
  %57 = or i64 %56, %41
  store i64 %57, ptr %gep57.us.us, align 8, !tbaa !41
  %indvars.iv.next = add nuw nsw i64 %indvars.iv, 1
  %exitcond92.not = icmp eq i64 %indvars.iv.next, %wide.trip.count
  br i1 %exitcond92.not, label %._crit_edge55.us.us, label %44, !llvm.loop !207

58:                                               ; preds = %27
  %59 = add nuw nsw i32 %.04049.us.us, 1
  %exitcond90.not = icmp eq i32 %59, %smax89
  br i1 %exitcond90.not, label %.lr.ph54.us.us, label %27, !llvm.loop !208

._crit_edge55.us.us:                              ; preds = %55
  %60 = add nuw nsw i32 %.04158.us.us, %38
  %61 = add nuw nsw i32 %.059.us.us, 1
  %exitcond94.not = icmp eq i32 %61, %smax93
  br i1 %exitcond94.not, label %._crit_edge60, label %.preheader.us.us, !llvm.loop !209

.preheader.us:                                    ; preds = %.preheader.us.preheader, %._crit_edge55.us
  %.059.us = phi i32 [ %73, %._crit_edge55.us ], [ 0, %.preheader.us.preheader ]
  %62 = and i32 %.059.us, 63
  %63 = zext nneg i32 %62 to i64
  %64 = shl nuw i64 1, %63
  %65 = lshr i32 %.059.us, 6
  %66 = zext nneg i32 %65 to i64
  %invariant.gep56.us = getelementptr i64, ptr %15, i64 %66
  br label %67

67:                                               ; preds = %.preheader.us, %67
  %indvars.iv95 = phi i64 [ 0, %.preheader.us ], [ %indvars.iv.next96, %67 ]
  %68 = trunc nuw nsw i64 %indvars.iv95 to i32
  %69 = mul i32 %24, %68
  %70 = sext i32 %69 to i64
  %gep57.us = getelementptr i64, ptr %invariant.gep56.us, i64 %70
  %71 = load i64, ptr %gep57.us, align 8, !tbaa !41
  %72 = or i64 %71, %64
  store i64 %72, ptr %gep57.us, align 8, !tbaa !41
  %indvars.iv.next96 = add nuw nsw i64 %indvars.iv95, 1
  %exitcond99.not = icmp eq i64 %indvars.iv.next96, 31
  br i1 %exitcond99.not, label %._crit_edge55.us, label %67, !llvm.loop !207

._crit_edge55.us:                                 ; preds = %67
  %73 = add nuw nsw i32 %.059.us, 1
  %exitcond101.not = icmp eq i32 %73, %smax100
  br i1 %exitcond101.not, label %._crit_edge60.thread, label %.preheader.us, !llvm.loop !209

.preheader.lr.ph.split.split.us:                  ; preds = %.preheader.lr.ph
  %.val48.us71 = load ptr, ptr %22, align 8, !tbaa !31
  %smax = tail call i32 @llvm.smax.i32(i32 %4, i32 1)
  %smax87 = tail call i32 @llvm.smax.i32(i32 %20, i32 1)
  br label %.preheader.us64

.preheader.us64:                                  ; preds = %._crit_edge.us72, %.preheader.lr.ph.split.split.us
  %.059.us65 = phi i32 [ 0, %.preheader.lr.ph.split.split.us ], [ %88, %._crit_edge.us72 ]
  %.04158.us66 = phi i32 [ 0, %.preheader.lr.ph.split.split.us ], [ %87, %._crit_edge.us72 ]
  %74 = shl i32 %.059.us65, %2
  br label %75

75:                                               ; preds = %.preheader.us64, %89
  %.04049.us67 = phi i32 [ 0, %.preheader.us64 ], [ %90, %89 ]
  %76 = add nsw i32 %.04049.us67, %74
  %77 = ashr i32 %76, 6
  %78 = sext i32 %77 to i64
  %79 = getelementptr inbounds i64, ptr %.val48.us71, i64 %78
  %80 = load i64, ptr %79, align 8, !tbaa !41
  %81 = and i32 %76, 63
  %82 = zext nneg i32 %81 to i64
  %83 = shl nuw i64 1, %82
  %84 = and i64 %80, %83
  %.not44.us68 = icmp eq i64 %84, 0
  br i1 %.not44.us68, label %89, label %._crit_edge.us72

._crit_edge.us72:                                 ; preds = %89, %75
  %.040.lcssa.us69 = phi i32 [ %.04049.us67, %75 ], [ %smax, %89 ]
  %85 = icmp eq i32 %.040.lcssa.us69, %4
  %86 = zext i1 %85 to i32
  %87 = add nuw nsw i32 %.04158.us66, %86
  %88 = add nuw nsw i32 %.059.us65, 1
  %exitcond88.not = icmp eq i32 %88, %smax87
  br i1 %exitcond88.not, label %._crit_edge60, label %.preheader.us64, !llvm.loop !209

89:                                               ; preds = %75
  %90 = add nuw nsw i32 %.04049.us67, 1
  %exitcond.not = icmp eq i32 %90, %smax
  br i1 %exitcond.not, label %._crit_edge.us72, label %75, !llvm.loop !208

._crit_edge60:                                    ; preds = %._crit_edge.us72, %._crit_edge55.us.us
  %.041.lcssa = phi i32 [ %60, %._crit_edge55.us.us ], [ %87, %._crit_edge.us72 ]
  %.not = icmp eq i32 %.041.lcssa, 0
  br i1 %.not, label %._crit_edge60.thread, label %91

91:                                               ; preds = %._crit_edge60
  %92 = tail call i32 (ptr, ...) @printf(ptr noundef nonnull dereferenceable(1) @.str.14, i32 noundef %.041.lcssa, i32 noundef %20)
  br label %94

._crit_edge60.thread:                             ; preds = %._crit_edge55.us, %Vec_WrdStart.exit, %._crit_edge60
  %93 = tail call i32 (ptr, ...) @printf(ptr noundef nonnull dereferenceable(1) @.str.18, i32 noundef %20)
  br label %94

94:                                               ; preds = %._crit_edge60.thread, %91
  tail call void @Gia_ManSimRelCheckFuncs(ptr poison, ptr noundef %1, i32 noundef %2, ptr noundef nonnull %9)
  ret ptr %9
}